target datalayout = "e-m:e-p270:32:32-p271:32:32-p272:64:64-i64:64-i128:128-f80:128-n8:16:32:64-S128"
target triple = "x86_64-pc-linux-gnu"

; Function Attrs: nounwind uwtable
define i32 @ossl_quic_wire_encode_pkt_hdr_pn(i64 noundef %0, ptr noundef %1, i64 noundef %2) #0 {
  %4 = alloca i32, align 4
  %5 = alloca i64, align 8
  %6 = alloca ptr, align 8
  %7 = alloca i64, align 8
  store i64 %0, ptr %5, align 8, !tbaa !14
  store ptr %1, ptr %6, align 8, !tbaa !10
  store i64 %2, ptr %7, align 8, !tbaa !14
  %8 = load i64, ptr %7, align 8, !tbaa !14
  switch i64 %8, label %59 [
    i64 1, label %9
    i64 2, label %14
    i64 3, label %24
    i64 4, label %39
  ]

9:                                                ; preds = %3
  %10 = load i64, ptr %5, align 8, !tbaa !14
  %11 = trunc i64 %10 to i8
  %12 = load ptr, ptr %6, align 8, !tbaa !10
  %13 = getelementptr inbounds i8, ptr %12, i64 0
  store i8 %11, ptr %13, align 1, !tbaa !31
  br label %60

14:                                               ; preds = %3
  %15 = load i64, ptr %5, align 8, !tbaa !14
  %16 = trunc i64 %15 to i8
  %17 = load ptr, ptr %6, align 8, !tbaa !10
  %18 = getelementptr inbounds i8, ptr %17, i64 1
  store i8 %16, ptr %18, align 1, !tbaa !31
  %19 = load i64, ptr %5, align 8, !tbaa !14
  %20 = lshr i64 %19, 8
  %21 = trunc i64 %20 to i8
  %22 = load ptr, ptr %6, align 8, !tbaa !10
  %23 = getelementptr inbounds i8, ptr %22, i64 0
  store i8 %21, ptr %23, align 1, !tbaa !31
  br label %60

24:                                               ; preds = %3
  %25 = load i64, ptr %5, align 8, !tbaa !14
  %26 = trunc i64 %25 to i8
  %27 = load ptr, ptr %6, align 8, !tbaa !10
  %28 = getelementptr inbounds i8, ptr %27, i64 2
  store i8 %26, ptr %28, align 1, !tbaa !31
  %29 = load i64, ptr %5, align 8, !tbaa !14
  %30 = lshr i64 %29, 8
  %31 = trunc i64 %30 to i8
  %32 = load ptr, ptr %6, align 8, !tbaa !10
  %33 = getelementptr inbounds i8, ptr %32, i64 1
  store i8 %31, ptr %33, align 1, !tbaa !31
  %34 = load i64, ptr %5, align 8, !tbaa !14
  %35 = lshr i64 %34, 16
  %36 = trunc i64 %35 to i8
  %37 = load ptr, ptr %6, align 8, !tbaa !10
  %38 = getelementptr inbounds i8, ptr %37, i64 0
  store i8 %36, ptr %38, align 1, !tbaa !31
  br label %60

39:                                               ; preds = %3
  %40 = load i64, ptr %5, align 8, !tbaa !14
  %41 = trunc i64 %40 to i8
  %42 = load ptr, ptr %6, align 8, !tbaa !10
  %43 = getelementptr inbounds i8, ptr %42, i64 3
  store i8 %41, ptr %43, align 1, !tbaa !31
  %44 = load i64, ptr %5, align 8, !tbaa !14
  %45 = lshr i64 %44, 8
  %46 = trunc i64 %45 to i8
  %47 = load ptr, ptr %6, align 8, !tbaa !10
  %48 = getelementptr inbounds i8, ptr %47, i64 2
  store i8 %46, ptr %48, align 1, !tbaa !31
  %49 = load i64, ptr %5, align 8, !tbaa !14
  %50 = lshr i64 %49, 16
  %51 = trunc i64 %50 to i8
  %52 = load ptr, ptr %6, align 8, !tbaa !10
  %53 = getelementptr inbounds i8, ptr %52, i64 1
  store i8 %51, ptr %53, align 1, !tbaa !31
  %54 = load i64, ptr %5, align 8, !tbaa !14
  %55 = lshr i64 %54, 24
  %56 = trunc i64 %55 to i8
  %57 = load ptr, ptr %6, align 8, !tbaa !10
  %58 = getelementptr inbounds i8, ptr %57, i64 0
  store i8 %56, ptr %58, align 1, !tbaa !31
  br label %60

59:                                               ; preds = %3
  store i32 0, ptr %4, align 4
  br label %61

60:                                               ; preds = %39, %24, %14, %9
  store i32 1, ptr %4, align 4
  br label %61

61:                                               ; preds = %60, %59
  %62 = load i32, ptr %4, align 4
  ret i32 %62
}