; Function Attrs: mustprogress nofree norecurse nosync nounwind willreturn memory(argmem: write) uwtable
define range(i32 0, 2) i32 @ossl_quic_wire_encode_pkt_hdr_pn(i64 noundef %0, ptr noundef writeonly captures(none) %1, i64 noundef %2) local_unnamed_addr #9 {
  switch i64 %2, label %15 [
    i64 1, label %.sink.split
    i64 2, label %.sink.split.sink.split
    i64 3, label %.sink.split.sink.split.sink.split
    i64 4, label %4
  ]

4:                                                ; preds = %3
  %5 = trunc i64 %0 to i8
  %6 = getelementptr inbounds nuw i8, ptr %1, i64 3
  store i8 %5, ptr %6, align 1, !tbaa !23
  %7 = lshr i64 %0, 8
  br label %.sink.split.sink.split.sink.split

.sink.split.sink.split.sink.split:                ; preds = %3, %4
  %.sink28 = phi i64 [ %7, %4 ], [ %0, %3 ]
  %.sink25 = phi i64 [ 16, %4 ], [ 8, %3 ]
  %.sink.ph = phi i64 [ 24, %4 ], [ 16, %3 ]
  %8 = trunc i64 %.sink28 to i8
  %9 = getelementptr inbounds nuw i8, ptr %1, i64 2
  store i8 %8, ptr %9, align 1, !tbaa !23
  %10 = lshr i64 %0, %.sink25
  br label %.sink.split.sink.split

.sink.split.sink.split:                           ; preds = %.sink.split.sink.split.sink.split, %3
  %.sink24 = phi i64 [ %0, %3 ], [ %10, %.sink.split.sink.split.sink.split ]
  %.sink = phi i64 [ 8, %3 ], [ %.sink.ph, %.sink.split.sink.split.sink.split ]
  %11 = trunc i64 %.sink24 to i8
  %12 = getelementptr inbounds nuw i8, ptr %1, i64 1
  store i8 %11, ptr %12, align 1, !tbaa !23
  %13 = lshr i64 %0, %.sink
  br label %.sink.split

.sink.split:                                      ; preds = %.sink.split.sink.split, %3
  %.sink21 = phi i64 [ %0, %3 ], [ %13, %.sink.split.sink.split ]
  %14 = trunc i64 %.sink21 to i8
  store i8 %14, ptr %1, align 1, !tbaa !23
  br label %15

15:                                               ; preds = %.sink.split, %3
  %.0 = phi i32 [ 0, %3 ], [ 1, %.sink.split ]
  ret i32 %.0
}